target datalayout = "e-m:e-p270:32:32-p271:32:32-p272:64:64-i64:64-i128:128-f80:128-n8:16:32:64-S128"
target triple = "x86_64-pc-linux-gnu"

%"struct.std::_Vector_base.6" = type { %"struct.std::_Vector_base<int, std::allocator<int>>::_Vector_impl" }
%"struct.std::_Vector_base<int, std::allocator<int>>::_Vector_impl" = type { %"struct.std::_Vector_base<int, std::allocator<int>>::_Vector_impl_data" }
%"struct.std::_Vector_base<int, std::allocator<int>>::_Vector_impl_data" = type { ptr, ptr, ptr }

; Function Attrs: mustprogress nounwind uwtable
define linkonce_odr noundef nonnull align 4 dereferenceable(4) ptr @_ZNKSt6vectorIiSaIiEEixEm(ptr noundef nonnull align 8 dereferenceable(24) %0, i64 noundef %1) #5 comdat align 2 {
  %3 = alloca ptr, align 8
  %4 = alloca i64, align 8
  store ptr %0, ptr %3, align 8, !tbaa !66
  store i64 %1, ptr %4, align 8, !tbaa !64
  %5 = load ptr, ptr %3, align 8
  %6 = getelementptr inbounds nuw %"struct.std::_Vector_base.6", ptr %5, i32 0, i32 0
  %7 = getelementptr inbounds nuw %"struct.std::_Vector_base<int, std::allocator<int>>::_Vector_impl_data", ptr %6, i32 0, i32 0
  %8 = load ptr, ptr %7, align 8, !tbaa !73
  %9 = load i64, ptr %4, align 8, !tbaa !64
  %10 = getelementptr inbounds nuw i32, ptr %8, i64 %9
  ret ptr %10
}

; Function Attrs: mustprogress nounwind uwtable
define linkonce_odr noundef i64 @_ZNKSt6vectorIiSaIiEE4sizeEv(ptr noundef nonnull align 8 dereferenceable(24) %0) #5 comdat align 2 {
  %2 = alloca ptr, align 8
  store ptr %0, ptr %2, align 8, !tbaa !66
  %3 = load ptr, ptr %2, align 8
  %4 = getelementptr inbounds nuw %"struct.std::_Vector_base.6", ptr %3, i32 0, i32 0
  %5 = getelementptr inbounds nuw %"struct.std::_Vector_base<int, std::allocator<int>>::_Vector_impl_data", ptr %4, i32 0, i32 1
  %6 = load ptr, ptr %5, align 8, !tbaa !72
  %7 = getelementptr inbounds nuw %"struct.std::_Vector_base.6", ptr %3, i32 0, i32 0
  %8 = getelementptr inbounds nuw %"struct.std::_Vector_base<int, std::allocator<int>>::_Vector_impl_data", ptr %7, i32 0, i32 0
  %9 = load ptr, ptr %8, align 8, !tbaa !73
  %10 = ptrtoint ptr %6 to i64
  %11 = ptrtoint ptr %9 to i64
  %12 = sub i64 %10, %11
  %13 = sdiv exact i64 %12, 4
  ret i64 %13
}

; Function Attrs: mustprogress nounwind uwtable
define noundef i64 @_ZN5Yosys11permute_lutEmRKSt6vectorIiSaIiEE(i64 noundef %0, ptr noundef nonnull align 8 dereferenceable(24) %1) #5 {
  %3 = alloca i64, align 8
  %4 = alloca ptr, align 8
  %5 = alloca i32, align 4
  %6 = alloca i64, align 8
  %7 = alloca i32, align 4
  %8 = alloca i32, align 4
  %9 = alloca i32, align 4
  %10 = alloca i32, align 4
  store i64 %0, ptr %3, align 8, !tbaa !64
  store ptr %1, ptr %4, align 8, !tbaa !66
  call void @llvm.lifetime.start.p0(i64 4, ptr %5) #3
  %11 = load ptr, ptr %4, align 8, !tbaa !66
  %12 = call noundef i64 @_ZNKSt6vectorIiSaIiEE4sizeEv(ptr noundef nonnull align 8 dereferenceable(24) %11) #3
  %13 = trunc i64 %12 to i32
  store i32 %13, ptr %5, align 4, !tbaa !68
  call void @llvm.lifetime.start.p0(i64 8, ptr %6) #3
  store i64 0, ptr %6, align 8, !tbaa !64
  call void @llvm.lifetime.start.p0(i64 4, ptr %7) #3
  store i32 0, ptr %7, align 4, !tbaa !68
  br label %14

14:                                               ; preds = %59, %2
  %15 = load i32, ptr %7, align 4, !tbaa !68
  %16 = load i32, ptr %5, align 4, !tbaa !68
  %17 = shl i32 1, %16
  %18 = icmp slt i32 %15, %17
  br i1 %18, label %20, label %19

19:                                               ; preds = %14
  store i32 2, ptr %8, align 4
  call void @llvm.lifetime.end.p0(i64 4, ptr %7) #3
  br label %62

20:                                               ; preds = %14
  call void @llvm.lifetime.start.p0(i64 4, ptr %9) #3
  store i32 0, ptr %9, align 4, !tbaa !68
  call void @llvm.lifetime.start.p0(i64 4, ptr %10) #3
  store i32 0, ptr %10, align 4, !tbaa !68
  br label %21

21:                                               ; preds = %42, %20
  %22 = load i32, ptr %10, align 4, !tbaa !68
  %23 = load i32, ptr %5, align 4, !tbaa !68
  %24 = icmp slt i32 %22, %23
  br i1 %24, label %26, label %25

25:                                               ; preds = %21
  store i32 5, ptr %8, align 4
  call void @llvm.lifetime.end.p0(i64 4, ptr %10) #3
  br label %45

26:                                               ; preds = %21
  %27 = load i32, ptr %7, align 4, !tbaa !68
  %28 = load i32, ptr %10, align 4, !tbaa !68
  %29 = shl i32 1, %28
  %30 = and i32 %27, %29
  %31 = icmp ne i32 %30, 0
  br i1 %31, label %32, label %41

32:                                               ; preds = %26
  %33 = load ptr, ptr %4, align 8, !tbaa !66
  %34 = load i32, ptr %10, align 4, !tbaa !68
  %35 = sext i32 %34 to i64
  %36 = call noundef nonnull align 4 dereferenceable(4) ptr @_ZNKSt6vectorIiSaIiEEixEm(ptr noundef nonnull align 8 dereferenceable(24) %33, i64 noundef %35) #3
  %37 = load i32, ptr %36, align 4, !tbaa !68
  %38 = shl i32 1, %37
  %39 = load i32, ptr %9, align 4, !tbaa !68
  %40 = or i32 %39, %38
  store i32 %40, ptr %9, align 4, !tbaa !68
  br label %41

41:                                               ; preds = %32, %26
  br label %42

42:                                               ; preds = %41
  %43 = load i32, ptr %10, align 4, !tbaa !68
  %44 = add nsw i32 %43, 1
  store i32 %44, ptr %10, align 4, !tbaa !68
  br label %21, !llvm.loop !69

45:                                               ; preds = %25
  %46 = load i64, ptr %3, align 8, !tbaa !64
  %47 = load i32, ptr %9, align 4, !tbaa !68
  %48 = shl i32 1, %47
  %49 = sext i32 %48 to i64
  %50 = and i64 %46, %49
  %51 = icmp ne i64 %50, 0
  br i1 %51, label %52, label %58

52:                                               ; preds = %45
  %53 = load i32, ptr %7, align 4, !tbaa !68
  %54 = shl i32 1, %53
  %55 = sext i32 %54 to i64
  %56 = load i64, ptr %6, align 8, !tbaa !64
  %57 = or i64 %56, %55
  store i64 %57, ptr %6, align 8, !tbaa !64
  br label %58

58:                                               ; preds = %52, %45
  call void @llvm.lifetime.end.p0(i64 4, ptr %9) #3
  br label %59

59:                                               ; preds = %58
  %60 = load i32, ptr %7, align 4, !tbaa !68
  %61 = add nsw i32 %60, 1
  store i32 %61, ptr %7, align 4, !tbaa !68
  br label %14, !llvm.loop !71

62:                                               ; preds = %19
  %63 = load i64, ptr %6, align 8, !tbaa !64
  store i32 1, ptr %8, align 4
  call void @llvm.lifetime.end.p0(i64 8, ptr %6) #3
  call void @llvm.lifetime.end.p0(i64 4, ptr %5) #3
  ret i64 %63
}