; Function Attrs: mustprogress nofree norecurse nosync nounwind willreturn memory(read, inaccessiblemem: none) uwtable
define noundef i64 @_ZN5Yosys11permute_lutEmRKSt6vectorIiSaIiEE(i64 noundef %0, ptr noundef nonnull readonly align 8 captures(none) dereferenceable(24) %1) local_unnamed_addr #7 {
  %3 = getelementptr inbounds nuw i8, ptr %1, i64 8
  %4 = load ptr, ptr %3, align 8, !tbaa !60
  %5 = load ptr, ptr %1, align 8, !tbaa !14
  %6 = ptrtoint ptr %4 to i64
  %7 = ptrtoint ptr %5 to i64
  %8 = sub i64 %6, %7
  %9 = lshr exact i64 %8, 2
  %10 = trunc i64 %9 to i32
  %11 = shl nuw i32 1, %10
  %.not33 = icmp eq i32 %10, 31
  br i1 %.not33, label %._crit_edge25, label %.preheader.lr.ph

.preheader.lr.ph:                                 ; preds = %2
  %12 = icmp sgt i32 %10, 0
  br i1 %12, label %.preheader.us.preheader, label %.preheader.lr.ph.split

.preheader.us.preheader:                          ; preds = %.preheader.lr.ph
  %smax38 = tail call i32 @llvm.smax.i32(i32 %11, i32 1)
  %wide.trip.count = and i64 %9, 2147483647
  br label %.preheader.us

.preheader.us:                                    ; preds = %.preheader.us.preheader, %._crit_edge.us
  %.01724.us = phi i32 [ %29, %._crit_edge.us ], [ 0, %.preheader.us.preheader ]
  %.01823.us = phi i64 [ %.119.us, %._crit_edge.us ], [ 0, %.preheader.us.preheader ]
  br label %13

13:                                               ; preds = %.preheader.us, %22
  %indvars.iv = phi i64 [ 0, %.preheader.us ], [ %indvars.iv.next, %22 ]
  %.01621.us = phi i32 [ 0, %.preheader.us ], [ %.1.us, %22 ]
  %14 = trunc nuw nsw i64 %indvars.iv to i32
  %15 = shl nuw i32 1, %14
  %16 = and i32 %15, %.01724.us
  %.not20.us = icmp eq i32 %16, 0
  br i1 %.not20.us, label %22, label %17

17:                                               ; preds = %13
  %18 = getelementptr inbounds nuw i32, ptr %5, i64 %indvars.iv
  %19 = load i32, ptr %18, align 4, !tbaa !17
  %20 = shl nuw i32 1, %19
  %21 = or i32 %20, %.01621.us
  br label %22

22:                                               ; preds = %17, %13
  %.1.us = phi i32 [ %21, %17 ], [ %.01621.us, %13 ]
  %indvars.iv.next = add nuw nsw i64 %indvars.iv, 1
  %exitcond37.not = icmp eq i64 %indvars.iv.next, %wide.trip.count
  br i1 %exitcond37.not, label %._crit_edge.us, label %13, !llvm.loop !61

._crit_edge.us:                                   ; preds = %22
  %23 = shl nuw i32 1, %.1.us
  %24 = sext i32 %23 to i64
  %25 = and i64 %0, %24
  %.not.us = icmp eq i64 %25, 0
  %26 = shl nuw i32 1, %.01724.us
  %27 = sext i32 %26 to i64
  %28 = select i1 %.not.us, i64 0, i64 %27
  %.119.us = or i64 %28, %.01823.us
  %29 = add nuw nsw i32 %.01724.us, 1
  %exitcond39.not = icmp eq i32 %29, %smax38
  br i1 %exitcond39.not, label %._crit_edge25, label %.preheader.us, !llvm.loop !62

.preheader.lr.ph.split:                           ; preds = %.preheader.lr.ph
  %30 = and i64 %0, 1
  %.not = icmp eq i64 %30, 0
  br i1 %.not, label %._crit_edge25, label %.preheader.preheader

.preheader.preheader:                             ; preds = %.preheader.lr.ph.split
  %smax = tail call i32 @llvm.smax.i32(i32 %11, i32 1)
  br label %.preheader

.preheader:                                       ; preds = %.preheader.preheader, %.preheader
  %.01724 = phi i32 [ %33, %.preheader ], [ 0, %.preheader.preheader ]
  %.01823 = phi i64 [ %.119, %.preheader ], [ 0, %.preheader.preheader ]
  %31 = shl nuw i32 1, %.01724
  %32 = sext i32 %31 to i64
  %.119 = or i64 %.01823, %32
  %33 = add nuw nsw i32 %.01724, 1
  %exitcond.not = icmp eq i32 %33, %smax
  br i1 %exitcond.not, label %._crit_edge25, label %.preheader, !llvm.loop !62

._crit_edge25:                                    ; preds = %.preheader, %._crit_edge.us, %.preheader.lr.ph.split, %2
  %.018.lcssa = phi i64 [ 0, %2 ], [ 0, %.preheader.lr.ph.split ], [ %.119.us, %._crit_edge.us ], [ %.119, %.preheader ]
  ret i64 %.018.lcssa
}